target datalayout = "e-m:e-p270:32:32-p271:32:32-p272:64:64-i64:64-i128:128-f80:128-n8:16:32:64-S128"
target triple = "x86_64-pc-linux-gnu"

; Function Attrs: mustprogress nounwind uwtable
define hidden noundef i32 @_Z22mbedtls_ct_mpi_uint_ltmm(i64 noundef %0, i64 noundef %1) #0 {
  %3 = alloca i64, align 8
  %4 = alloca i64, align 8
  %5 = alloca i64, align 8
  %6 = alloca i64, align 8
  store i64 %0, ptr %3, align 8, !tbaa !7
  store i64 %1, ptr %4, align 8, !tbaa !7
  call void @llvm.lifetime.start.p0(i64 8, ptr %5) #5
  call void @llvm.lifetime.start.p0(i64 8, ptr %6) #5
  %7 = load i64, ptr %3, align 8, !tbaa !7
  %8 = load i64, ptr %4, align 8, !tbaa !7
  %9 = xor i64 %7, %8
  store i64 %9, ptr %6, align 8, !tbaa !7
  %10 = load i64, ptr %3, align 8, !tbaa !7
  %11 = load i64, ptr %4, align 8, !tbaa !7
  %12 = sub i64 %10, %11
  %13 = load i64, ptr %6, align 8, !tbaa !7
  %14 = xor i64 %13, -1
  %15 = and i64 %12, %14
  store i64 %15, ptr %5, align 8, !tbaa !7
  %16 = load i64, ptr %4, align 8, !tbaa !7
  %17 = load i64, ptr %6, align 8, !tbaa !7
  %18 = and i64 %16, %17
  %19 = load i64, ptr %5, align 8, !tbaa !7
  %20 = or i64 %19, %18
  store i64 %20, ptr %5, align 8, !tbaa !7
  %21 = load i64, ptr %5, align 8, !tbaa !7
  %22 = lshr i64 %21, 63
  store i64 %22, ptr %5, align 8, !tbaa !7
  %23 = load i64, ptr %5, align 8, !tbaa !7
  %24 = trunc i64 %23 to i32
  call void @llvm.lifetime.end.p0(i64 8, ptr %6) #5
  call void @llvm.lifetime.end.p0(i64 8, ptr %5) #5
  ret i32 %24
}