; Function Attrs: mustprogress nofree norecurse nosync nounwind willreturn memory(none) uwtable
define hidden noundef range(i32 0, 2) i32 @_Z22mbedtls_ct_mpi_uint_ltmm(i64 noundef %0, i64 noundef %1) local_unnamed_addr #2 {
  %3 = xor i64 %1, %0
  %4 = sub i64 %0, %1
  %5 = xor i64 %3, -1
  %6 = and i64 %4, %5
  %7 = and i64 %3, %1
  %8 = or disjoint i64 %6, %7
  %9 = lshr i64 %8, 63
  %10 = trunc nuw nsw i64 %9 to i32
  ret i32 %10
}